; Function Attrs: mustprogress uwtable
define void @_ZN3zmq12udp_engine_t9terminateEv(ptr noundef nonnull align 8 dereferenceable(17880) %0) unnamed_addr #0 align 2 {
  %2 = getelementptr inbounds nuw i8, ptr %0, i64 96
  %3 = load i8, ptr %2, align 8, !tbaa !18, !range !97, !noundef !98
  %4 = trunc nuw i8 %3 to i1
  br i1 %4, label %10, label %5, !prof !107

5:                                                ; preds = %1
  %6 = load ptr, ptr @stderr, align 8, !tbaa !105
  %7 = tail call i32 (ptr, ptr, ...) @fprintf(ptr noundef %6, ptr noundef nonnull @.str, ptr noundef nonnull @.str.10, ptr noundef nonnull @.str.2, i32 noundef 326) #27
  %8 = load ptr, ptr @stderr, align 8, !tbaa !105
  %9 = tail call i32 @fflush(ptr noundef %8)
  tail call void @_ZN3zmq9zmq_abortEPKc(ptr noundef nonnull @.str.10)
  br label %10

10:                                               ; preds = %1, %5
  store i8 0, ptr %2, align 8, !tbaa !18
  %11 = getelementptr inbounds nuw i8, ptr %0, i64 112
  %12 = load ptr, ptr %11, align 8, !tbaa !110
  tail call void @_ZN3zmq11io_object_t5rm_fdEPv(ptr noundef nonnull align 8 dereferenceable(16) %0, ptr noundef %12)
  tail call void @_ZN3zmq11io_object_t6unplugEv(ptr noundef nonnull align 8 dereferenceable(16) %0)
  tail call void @_ZN3zmq12udp_engine_tD1Ev(ptr noundef nonnull align 8 dereferenceable(17880) %0) #23
  tail call void @_ZdlPv(ptr noundef nonnull %0) #26
  ret void
}